(ioptparse
Values
p0
(dp1
S'autoflatten'
p2
I01
sS'filetype'
p3
S'kicad_module'
p4
sS'ids'
p5
(lp6
sS'crop'
p7
I00
sS'debug'
p8
I00
sS'openkicad'
p9
I00
sS'openfactory'
p10
I00
sS'threshold'
p11
F128.0
sS'path'
p12
S'/home/dusjagr/Documents/8bit_Mixtape/MutanMonkey_MixtapeNEO-3000/KiCAD/8Bitmixtape3000_MutanMonkey.pretty'
p13
sS'dpi'
p14
F2000.0
sb.